target datalayout = "e-m:e-p270:32:32-p271:32:32-p272:64:64-i64:64-i128:128-f80:128-n8:16:32:64-S128"
target triple = "x86_64-pc-linux-gnu"

%struct.ggml_backend_registry = type { %"class.std::vector", %"class.std::vector.0" }
%"class.std::vector" = type { %"struct.std::_Vector_base" }
%"struct.std::_Vector_base" = type { %"struct.std::_Vector_base<ggml_backend_reg_entry, std::allocator<ggml_backend_reg_entry>>::_Vector_impl" }
%"struct.std::_Vector_base<ggml_backend_reg_entry, std::allocator<ggml_backend_reg_entry>>::_Vector_impl" = type { %"struct.std::_Vector_base<ggml_backend_reg_entry, std::allocator<ggml_backend_reg_entry>>::_Vector_impl_data" }
%"struct.std::_Vector_base<ggml_backend_reg_entry, std::allocator<ggml_backend_reg_entry>>::_Vector_impl_data" = type { ptr, ptr, ptr }
%"class.std::vector.0" = type { %"struct.std::_Vector_base.1" }
%"struct.std::_Vector_base.1" = type { %"struct.std::_Vector_base<ggml_backend_device *, std::allocator<ggml_backend_device *>>::_Vector_impl" }
%"struct.std::_Vector_base<ggml_backend_device *, std::allocator<ggml_backend_device *>>::_Vector_impl" = type { %"struct.std::_Vector_base<ggml_backend_device *, std::allocator<ggml_backend_device *>>::_Vector_impl_data" }
%"struct.std::_Vector_base<ggml_backend_device *, std::allocator<ggml_backend_device *>>::_Vector_impl_data" = type { ptr, ptr, ptr }

@.str = private unnamed_addr constant [127 x i8] c"generated/home/dtcxzyw/WorkSpace/Projects/compilers/llvm-opt-benchmark/bench/llama.cpp/llama.cpp/ggml/src/ggml-backend-reg.cpp\00", align 1
@.str.1 = private unnamed_addr constant [23 x i8] c"GGML_ASSERT(%s) failed\00", align 1
@.str.3 = private unnamed_addr constant [33 x i8] c"index < ggml_backend_dev_count()\00", align 1
@_ZZL7get_regvE3reg = internal global %struct.ggml_backend_registry zeroinitializer, align 8
@_ZGVZL7get_regvE3reg = internal global i64 0, align 8
@__dso_handle = external hidden global i8

; Function Attrs: mustprogress nounwind uwtable
define linkonce_odr noundef i64 @_ZNKSt6vectorIP19ggml_backend_deviceSaIS1_EE4sizeEv(ptr noundef nonnull align 8 dereferenceable(24) %0) #1 comdat align 2 {
  %2 = alloca ptr, align 8
  store ptr %0, ptr %2, align 8, !tbaa !43
  %3 = load ptr, ptr %2, align 8
  %4 = getelementptr inbounds nuw %"struct.std::_Vector_base.1", ptr %3, i32 0, i32 0
  %5 = getelementptr inbounds nuw %"struct.std::_Vector_base<ggml_backend_device *, std::allocator<ggml_backend_device *>>::_Vector_impl_data", ptr %4, i32 0, i32 1
  %6 = load ptr, ptr %5, align 8, !tbaa !45
  %7 = getelementptr inbounds nuw %"struct.std::_Vector_base.1", ptr %3, i32 0, i32 0
  %8 = getelementptr inbounds nuw %"struct.std::_Vector_base<ggml_backend_device *, std::allocator<ggml_backend_device *>>::_Vector_impl_data", ptr %7, i32 0, i32 0
  %9 = load ptr, ptr %8, align 8, !tbaa !48
  %10 = ptrtoint ptr %6 to i64
  %11 = ptrtoint ptr %9 to i64
  %12 = sub i64 %10, %11
  %13 = sdiv exact i64 %12, 8
  ret i64 %13
}

; Function Attrs: mustprogress nounwind uwtable
define linkonce_odr noundef nonnull align 8 dereferenceable(8) ptr @_ZNSt6vectorIP19ggml_backend_deviceSaIS1_EEixEm(ptr noundef nonnull align 8 dereferenceable(24) %0, i64 noundef %1) #1 comdat align 2 {
  %3 = alloca ptr, align 8
  %4 = alloca i64, align 8
  store ptr %0, ptr %3, align 8, !tbaa !43
  store i64 %1, ptr %4, align 8, !tbaa !21
  %5 = load ptr, ptr %3, align 8
  %6 = getelementptr inbounds nuw %"struct.std::_Vector_base.1", ptr %5, i32 0, i32 0
  %7 = getelementptr inbounds nuw %"struct.std::_Vector_base<ggml_backend_device *, std::allocator<ggml_backend_device *>>::_Vector_impl_data", ptr %6, i32 0, i32 0
  %8 = load ptr, ptr %7, align 8, !tbaa !48
  %9 = load i64, ptr %4, align 8, !tbaa !21
  %10 = getelementptr inbounds nuw ptr, ptr %8, i64 %9
  ret ptr %10
}

; Function Attrs: mustprogress uwtable
define internal noundef nonnull align 8 dereferenceable(48) ptr @_ZL7get_regv() #0 personality ptr @__gxx_personality_v0 {
  %1 = alloca ptr, align 8
  %2 = alloca i32, align 4
  %3 = load atomic i8, ptr @_ZGVZL7get_regvE3reg acquire, align 8
  %4 = icmp eq i8 %3, 0
  br i1 %4, label %5, label %11, !prof !8

5:                                                ; preds = %0
  %6 = call i32 @__cxa_guard_acquire(ptr @_ZGVZL7get_regvE3reg) #6
  %7 = icmp ne i32 %6, 0
  br i1 %7, label %8, label %11

8:                                                ; preds = %5
  invoke void @_ZN21ggml_backend_registryC2Ev(ptr noundef nonnull align 8 dereferenceable(48) @_ZZL7get_regvE3reg)
          to label %9 unwind label %12

9:                                                ; preds = %8
  %10 = call i32 @__cxa_atexit(ptr @_ZN21ggml_backend_registryD2Ev, ptr @_ZZL7get_regvE3reg, ptr @__dso_handle) #6
  call void @__cxa_guard_release(ptr @_ZGVZL7get_regvE3reg) #6
  br label %11

11:                                               ; preds = %9, %5, %0
  ret ptr @_ZZL7get_regvE3reg

12:                                               ; preds = %8
  %13 = landingpad { ptr, i32 }
          cleanup
  %14 = extractvalue { ptr, i32 } %13, 0
  store ptr %14, ptr %1, align 8
  %15 = extractvalue { ptr, i32 } %13, 1
  store i32 %15, ptr %2, align 4
  call void @__cxa_guard_abort(ptr @_ZGVZL7get_regvE3reg) #6
  br label %16

16:                                               ; preds = %12
  %17 = load ptr, ptr %1, align 8
  %18 = load i32, ptr %2, align 4
  %19 = insertvalue { ptr, i32 } poison, ptr %17, 0
  %20 = insertvalue { ptr, i32 } %19, i32 %18, 1
  resume { ptr, i32 } %20
}

; Function Attrs: mustprogress uwtable
define i64 @ggml_backend_dev_count() #0 {
  %1 = call noundef nonnull align 8 dereferenceable(48) ptr @_ZL7get_regv()
  %2 = getelementptr inbounds nuw %struct.ggml_backend_registry, ptr %1, i32 0, i32 1
  %3 = call noundef i64 @_ZNKSt6vectorIP19ggml_backend_deviceSaIS1_EE4sizeEv(ptr noundef nonnull align 8 dereferenceable(24) %2) #6
  ret i64 %3
}

; Function Attrs: mustprogress uwtable
define ptr @ggml_backend_dev_get(i64 noundef %0) #0 {
  %2 = alloca i64, align 8
  store i64 %0, ptr %2, align 8, !tbaa !21
  %3 = load i64, ptr %2, align 8, !tbaa !21
  %4 = call i64 @ggml_backend_dev_count()
  %5 = icmp ult i64 %3, %4
  br i1 %5, label %7, label %6

6:                                                ; preds = %1
  call void (ptr, i32, ptr, ...) @ggml_abort(ptr noundef @.str, i32 noundef 340, ptr noundef @.str.1, ptr noundef @.str.3) #21
  unreachable

7:                                                ; preds = %1
  %8 = call noundef nonnull align 8 dereferenceable(48) ptr @_ZL7get_regv()
  %9 = getelementptr inbounds nuw %struct.ggml_backend_registry, ptr %8, i32 0, i32 1
  %10 = load i64, ptr %2, align 8, !tbaa !21
  %11 = call noundef nonnull align 8 dereferenceable(8) ptr @_ZNSt6vectorIP19ggml_backend_deviceSaIS1_EEixEm(ptr noundef nonnull align 8 dereferenceable(24) %9, i64 noundef %10) #6
  %12 = load ptr, ptr %11, align 8, !tbaa !30
  ret ptr %12
}