; Function Attrs: mustprogress uwtable
define ptr @ggml_backend_dev_get(i64 noundef %0) local_unnamed_addr #0 personality ptr @__gxx_personality_v0 {
  %2 = load atomic i8, ptr @_ZGVZL7get_regvE3reg acquire, align 8
  %3 = icmp eq i8 %2, 0
  br i1 %3, label %4, label %ggml_backend_dev_count.exit, !prof !3

4:                                                ; preds = %1
  %5 = tail call i32 @__cxa_guard_acquire(ptr nonnull @_ZGVZL7get_regvE3reg) #26
  %.not.i.i = icmp eq i32 %5, 0
  br i1 %.not.i.i, label %ggml_backend_dev_count.exit, label %6

6:                                                ; preds = %4
  invoke void @_ZN21ggml_backend_registryC2Ev(ptr noundef nonnull align 8 dereferenceable(48) @_ZZL7get_regvE3reg)
          to label %7 unwind label %9

7:                                                ; preds = %6
  %8 = tail call i32 @__cxa_atexit(ptr nonnull @_ZN21ggml_backend_registryD2Ev, ptr nonnull @_ZZL7get_regvE3reg, ptr nonnull @__dso_handle) #26
  tail call void @__cxa_guard_release(ptr nonnull @_ZGVZL7get_regvE3reg) #26
  br label %ggml_backend_dev_count.exit

common.resume:                                    ; preds = %27, %9
  %common.resume.op = phi { ptr, i32 } [ %10, %9 ], [ %28, %27 ]
  tail call void @__cxa_guard_abort(ptr nonnull @_ZGVZL7get_regvE3reg) #26
  resume { ptr, i32 } %common.resume.op

9:                                                ; preds = %6
  %10 = landingpad { ptr, i32 }
          cleanup
  br label %common.resume

ggml_backend_dev_count.exit:                      ; preds = %1, %4, %7
  %11 = load ptr, ptr getelementptr inbounds nuw (i8, ptr @_ZZL7get_regvE3reg, i64 32), align 8, !tbaa !22
  %12 = load ptr, ptr getelementptr inbounds nuw (i8, ptr @_ZZL7get_regvE3reg, i64 24), align 8, !tbaa !29
  %13 = ptrtoint ptr %11 to i64
  %14 = ptrtoint ptr %12 to i64
  %15 = sub i64 %13, %14
  %16 = ashr exact i64 %15, 3
  %17 = icmp ult i64 %0, %16
  br i1 %17, label %19, label %18

18:                                               ; preds = %ggml_backend_dev_count.exit
  tail call void (ptr, i32, ptr, ...) @ggml_abort(ptr noundef nonnull @.str, i32 noundef 340, ptr noundef nonnull @.str.1, ptr noundef nonnull @.str.3) #27
  unreachable

19:                                               ; preds = %ggml_backend_dev_count.exit
  %20 = load atomic i8, ptr @_ZGVZL7get_regvE3reg acquire, align 8
  %21 = icmp eq i8 %20, 0
  br i1 %21, label %22, label %_ZL7get_regv.exit, !prof !3

22:                                               ; preds = %19
  %23 = tail call i32 @__cxa_guard_acquire(ptr nonnull @_ZGVZL7get_regvE3reg) #26
  %.not.i = icmp eq i32 %23, 0
  br i1 %.not.i, label %_ZL7get_regv.exit, label %24

24:                                               ; preds = %22
  invoke void @_ZN21ggml_backend_registryC2Ev(ptr noundef nonnull align 8 dereferenceable(48) @_ZZL7get_regvE3reg)
          to label %25 unwind label %27

25:                                               ; preds = %24
  %26 = tail call i32 @__cxa_atexit(ptr nonnull @_ZN21ggml_backend_registryD2Ev, ptr nonnull @_ZZL7get_regvE3reg, ptr nonnull @__dso_handle) #26
  tail call void @__cxa_guard_release(ptr nonnull @_ZGVZL7get_regvE3reg) #26
  br label %_ZL7get_regv.exit

27:                                               ; preds = %24
  %28 = landingpad { ptr, i32 }
          cleanup
  br label %common.resume

_ZL7get_regv.exit:                                ; preds = %19, %22, %25
  %29 = load ptr, ptr getelementptr inbounds nuw (i8, ptr @_ZZL7get_regvE3reg, i64 24), align 8, !tbaa !29
  %30 = getelementptr inbounds nuw ptr, ptr %29, i64 %0
  %31 = load ptr, ptr %30, align 8, !tbaa !27
  ret ptr %31
}